target datalayout = "e-m:e-p270:32:32-p271:32:32-p272:64:64-i64:64-i128:128-f80:128-n8:16:32:64-S128"
target triple = "x86_64-pc-linux-gnu"

%struct.object_id = type { [32 x i8], i32 }

@the_repository = external global ptr, align 8
@stderr = external global ptr, align 8
@.str.47 = private unnamed_addr constant [29 x i8] c"Removing note for object %s\0A\00", align 1
@.str.137 = private unnamed_addr constant [39 x i8] c"Failed to resolve '%s' as a valid ref.\00", align 1
@.str.138 = private unnamed_addr constant [23 x i8] c"Object %s has no note\0A\00", align 1
@.str.157 = private unnamed_addr constant [1 x i8] zeroinitializer, align 1
@git_gettext_enabled = external global i32, align 4

; Function Attrs: inlinehint nounwind uwtable
define internal i32 @const_error() #3 {
  ret i32 -1
}

; Function Attrs: inlinehint nounwind uwtable
define internal ptr @_(ptr noundef %0) #3 {
  %2 = alloca ptr, align 8
  %3 = alloca ptr, align 8
  store ptr %0, ptr %3, align 8, !tbaa !11
  %4 = load ptr, ptr %3, align 8, !tbaa !11
  %5 = load i8, ptr %4, align 1, !tbaa !58
  %6 = icmp ne i8 %5, 0
  br i1 %6, label %8, label %7

7:                                                ; preds = %1
  store ptr @.str.157, ptr %2, align 8
  br label %16

8:                                                ; preds = %1
  %9 = load i32, ptr @git_gettext_enabled, align 4, !tbaa !4
  %10 = icmp ne i32 %9, 0
  br i1 %10, label %13, label %11

11:                                               ; preds = %8
  %12 = load ptr, ptr %3, align 8, !tbaa !11
  store ptr %12, ptr %2, align 8
  br label %16

13:                                               ; preds = %8
  %14 = load ptr, ptr %3, align 8, !tbaa !11
  %15 = call ptr @dcgettext(ptr noundef null, ptr noundef %14, i32 noundef 5) #11
  store ptr %15, ptr %2, align 8
  br label %16

16:                                               ; preds = %13, %11, %7
  %17 = load ptr, ptr %2, align 8
  ret ptr %17
}

; Function Attrs: nounwind uwtable
define internal i32 @remove_one_note(ptr noundef %0, ptr noundef %1, i32 noundef %2) #0 {
  %4 = alloca i32, align 4
  %5 = alloca ptr, align 8
  %6 = alloca ptr, align 8
  %7 = alloca i32, align 4
  %8 = alloca i32, align 4
  %9 = alloca %struct.object_id, align 4
  %10 = alloca i32, align 4
  store ptr %0, ptr %5, align 8, !tbaa !32
  store ptr %1, ptr %6, align 8, !tbaa !11
  store i32 %2, ptr %7, align 4, !tbaa !4
  call void @llvm.lifetime.start.p0(i64 4, ptr %8) #11
  call void @llvm.lifetime.start.p0(i64 36, ptr %9) #11
  %11 = load ptr, ptr @the_repository, align 8, !tbaa !13
  %12 = load ptr, ptr %6, align 8, !tbaa !11
  %13 = call i32 @repo_get_oid(ptr noundef %11, ptr noundef %12, ptr noundef %9)
  %14 = icmp ne i32 %13, 0
  br i1 %14, label %15, label %20

15:                                               ; preds = %3
  %16 = call ptr @_(ptr noundef @.str.137)
  %17 = load ptr, ptr %6, align 8, !tbaa !11
  %18 = call i32 (ptr, ...) @error(ptr noundef %16, ptr noundef %17)
  %19 = call i32 @const_error()
  store i32 %19, ptr %4, align 4
  store i32 1, ptr %10, align 4
  br label %46

20:                                               ; preds = %3
  %21 = load ptr, ptr %5, align 8, !tbaa !32
  %22 = getelementptr inbounds nuw %struct.object_id, ptr %9, i32 0, i32 0
  %23 = getelementptr inbounds [32 x i8], ptr %22, i64 0, i64 0
  %24 = call i32 @remove_note(ptr noundef %21, ptr noundef %23)
  store i32 %24, ptr %8, align 4, !tbaa !4
  %25 = load i32, ptr %8, align 4, !tbaa !4
  %26 = icmp ne i32 %25, 0
  br i1 %26, label %27, label %32

27:                                               ; preds = %20
  %28 = load ptr, ptr @stderr, align 8, !tbaa !39
  %29 = call ptr @_(ptr noundef @.str.138)
  %30 = load ptr, ptr %6, align 8, !tbaa !11
  %31 = call i32 (ptr, ptr, ...) @fprintf(ptr noundef %28, ptr noundef %29, ptr noundef %30) #11
  br label %37

32:                                               ; preds = %20
  %33 = load ptr, ptr @stderr, align 8, !tbaa !39
  %34 = call ptr @_(ptr noundef @.str.47)
  %35 = load ptr, ptr %6, align 8, !tbaa !11
  %36 = call i32 (ptr, ptr, ...) @fprintf(ptr noundef %33, ptr noundef %34, ptr noundef %35) #11
  br label %37

37:                                               ; preds = %32, %27
  %38 = load i32, ptr %7, align 4, !tbaa !4
  %39 = and i32 %38, 1
  %40 = icmp ne i32 %39, 0
  br i1 %40, label %41, label %42

41:                                               ; preds = %37
  br label %44

42:                                               ; preds = %37
  %43 = load i32, ptr %8, align 4, !tbaa !4
  br label %44

44:                                               ; preds = %42, %41
  %45 = phi i32 [ 0, %41 ], [ %43, %42 ]
  store i32 %45, ptr %4, align 4
  store i32 1, ptr %10, align 4
  br label %46

46:                                               ; preds = %44, %15
  call void @llvm.lifetime.end.p0(i64 36, ptr %9) #11
  call void @llvm.lifetime.end.p0(i64 4, ptr %8) #11
  %47 = load i32, ptr %4, align 4
  ret i32 %47
}