; Function Attrs: nounwind uwtable
define internal fastcc i32 @remove_one_note(ptr noundef %0, i32 noundef %1) unnamed_addr #0 {
  %3 = alloca %struct.object_id, align 4
  call void @llvm.lifetime.start.p0(i64 36, ptr nonnull %3) #16
  %4 = load ptr, ptr @the_repository, align 8, !tbaa !20
  %5 = call i32 @repo_get_oid(ptr noundef %4, ptr noundef %0, ptr noundef nonnull %3) #16
  %.not = icmp eq i32 %5, 0
  br i1 %.not, label %11, label %6

6:                                                ; preds = %2
  %7 = load i32, ptr @git_gettext_enabled, align 4, !tbaa !24
  %.not4.i = icmp eq i32 %7, 0
  br i1 %.not4.i, label %_.exit, label %8

8:                                                ; preds = %6
  %9 = call ptr @dcgettext(ptr noundef null, ptr noundef nonnull @.str.137, i32 noundef 5) #16
  br label %_.exit

_.exit:                                           ; preds = %6, %8
  %.0.i = phi ptr [ %9, %8 ], [ @.str.137, %6 ]
  %10 = call i32 (ptr, ...) @error(ptr noundef %.0.i, ptr noundef %0) #16
  br label %19

11:                                               ; preds = %2
  %12 = call i32 @remove_note(ptr noundef nonnull @default_notes_tree, ptr noundef nonnull %3) #16
  %.not8 = icmp eq i32 %12, 0
  %13 = load ptr, ptr @stderr, align 8, !tbaa !31
  %14 = load i32, ptr @git_gettext_enabled, align 4, !tbaa !24
  %.not4.i13 = icmp eq i32 %14, 0
  %.str.47..str.138 = select i1 %.not8, ptr @.str.47, ptr @.str.138
  br i1 %.not4.i13, label %_.exit12, label %_.exit12.sink.split

_.exit12.sink.split:                              ; preds = %11
  %15 = call ptr @dcgettext(ptr noundef null, ptr noundef nonnull %.str.47..str.138, i32 noundef 5) #16
  br label %_.exit12

_.exit12:                                         ; preds = %11, %_.exit12.sink.split
  %.0.i14.sink = phi ptr [ %15, %_.exit12.sink.split ], [ %.str.47..str.138, %11 ]
  %16 = call i32 (ptr, ptr, ...) @fprintf(ptr noundef %13, ptr noundef %.0.i14.sink, ptr noundef %0) #19
  %17 = and i32 %1, 1
  %.not9 = icmp eq i32 %17, 0
  %18 = select i1 %.not9, i32 %12, i32 0
  br label %19

19:                                               ; preds = %_.exit12, %_.exit
  %.0 = phi i32 [ -1, %_.exit ], [ %18, %_.exit12 ]
  call void @llvm.lifetime.end.p0(i64 36, ptr nonnull %3) #16
  ret i32 %.0
}